; Function Attrs: mustprogress nofree norecurse nosync nounwind memory(argmem: readwrite) uwtable
define void @_Z10get_centerPA3_KfPfiS2_(ptr noundef readonly captures(none) %0, ptr noundef readonly %1, i32 noundef %2, ptr noundef writeonly captures(none) %3) local_unnamed_addr #5 {
  %.not.i = icmp eq ptr %1, null
  %5 = icmp sgt i32 %2, 0
  br i1 %.not.i, label %.preheader.i, label %.preheader30.i

.preheader30.i:                                   ; preds = %4
  br i1 %5, label %.lr.ph.i, label %_Z20get_sum_of_positionsPA3_KfPfiPd.exit

.lr.ph.i:                                         ; preds = %.preheader30.i
  %wide.trip.count.i = zext nneg i32 %2 to i64
  br label %6

.preheader.i:                                     ; preds = %4
  br i1 %5, label %.lr.ph39.i, label %_Z20get_sum_of_positionsPA3_KfPfiPd.exit

.lr.ph39.i:                                       ; preds = %.preheader.i
  %wide.trip.count56.i = zext nneg i32 %2 to i64
  br label %29

6:                                                ; preds = %6, %.lr.ph.i
  %indvars.iv.i = phi i64 [ 0, %.lr.ph.i ], [ %indvars.iv.next.i, %6 ]
  %7 = phi double [ 0.000000e+00, %.lr.ph.i ], [ %28, %6 ]
  %8 = phi double [ 0.000000e+00, %.lr.ph.i ], [ %26, %6 ]
  %9 = phi double [ 0.000000e+00, %.lr.ph.i ], [ %24, %6 ]
  %.033.i = phi double [ 0.000000e+00, %.lr.ph.i ], [ %13, %6 ]
  %10 = getelementptr inbounds nuw float, ptr %1, i64 %indvars.iv.i
  %11 = load float, ptr %10, align 4, !tbaa !37
  %12 = fpext float %11 to double
  %13 = fadd double %.033.i, %12
  %14 = getelementptr inbounds nuw [3 x float], ptr %0, i64 %indvars.iv.i
  %15 = load float, ptr %14, align 4, !tbaa !37
  %16 = fmul float %11, %15
  %17 = getelementptr inbounds nuw i8, ptr %14, i64 4
  %18 = load float, ptr %17, align 4, !tbaa !37
  %19 = fmul float %11, %18
  %20 = getelementptr inbounds nuw i8, ptr %14, i64 8
  %21 = load float, ptr %20, align 4, !tbaa !37
  %22 = fmul float %11, %21
  %23 = fpext float %16 to double
  %24 = fadd double %9, %23
  %25 = fpext float %19 to double
  %26 = fadd double %8, %25
  %27 = fpext float %22 to double
  %28 = fadd double %7, %27
  %indvars.iv.next.i = add nuw nsw i64 %indvars.iv.i, 1
  %exitcond.not.i = icmp eq i64 %indvars.iv.next.i, %wide.trip.count.i
  br i1 %exitcond.not.i, label %_Z20get_sum_of_positionsPA3_KfPfiPd.exit, label %6, !llvm.loop !68

29:                                               ; preds = %29, %.lr.ph39.i
  %indvars.iv53.i = phi i64 [ 0, %.lr.ph39.i ], [ %indvars.iv.next54.i, %29 ]
  %30 = phi double [ 0.000000e+00, %.lr.ph39.i ], [ %44, %29 ]
  %31 = phi double [ 0.000000e+00, %.lr.ph39.i ], [ %40, %29 ]
  %32 = phi double [ 0.000000e+00, %.lr.ph39.i ], [ %36, %29 ]
  %33 = getelementptr inbounds nuw [3 x float], ptr %0, i64 %indvars.iv53.i
  %34 = load float, ptr %33, align 4, !tbaa !37
  %35 = fpext float %34 to double
  %36 = fadd double %32, %35
  %37 = getelementptr inbounds nuw i8, ptr %33, i64 4
  %38 = load float, ptr %37, align 4, !tbaa !37
  %39 = fpext float %38 to double
  %40 = fadd double %31, %39
  %41 = getelementptr inbounds nuw i8, ptr %33, i64 8
  %42 = load float, ptr %41, align 4, !tbaa !37
  %43 = fpext float %42 to double
  %44 = fadd double %30, %43
  %indvars.iv.next54.i = add nuw nsw i64 %indvars.iv53.i, 1
  %exitcond57.not.i = icmp eq i64 %indvars.iv.next54.i, %wide.trip.count56.i
  br i1 %exitcond57.not.i, label %_Z20get_sum_of_positionsPA3_KfPfiPd.exit, label %29, !llvm.loop !69

_Z20get_sum_of_positionsPA3_KfPfiPd.exit:         ; preds = %6, %29, %.preheader30.i, %.preheader.i
  %.sroa.0.0 = phi double [ 0.000000e+00, %.preheader.i ], [ 0.000000e+00, %.preheader30.i ], [ %36, %29 ], [ %24, %6 ]
  %.sroa.8.0 = phi double [ 0.000000e+00, %.preheader.i ], [ 0.000000e+00, %.preheader30.i ], [ %40, %29 ], [ %26, %6 ]
  %.sroa.13.0 = phi double [ 0.000000e+00, %.preheader.i ], [ 0.000000e+00, %.preheader30.i ], [ %44, %29 ], [ %28, %6 ]
  %.1.i = phi double [ 0.000000e+00, %.preheader.i ], [ 0.000000e+00, %.preheader30.i ], [ 0.000000e+00, %29 ], [ %13, %6 ]
  %45 = sitofp i32 %2 to double
  %.0 = select i1 %.not.i, double %45, double %.1.i
  %46 = fdiv double 1.000000e+00, %.0
  %47 = fmul double %.sroa.0.0, %46
  %48 = fmul double %.sroa.8.0, %46
  %49 = fmul double %.sroa.13.0, %46
  %50 = fptrunc double %47 to float
  store float %50, ptr %3, align 4, !tbaa !37
  %51 = fptrunc double %48 to float
  %52 = getelementptr inbounds nuw i8, ptr %3, i64 4
  store float %51, ptr %52, align 4, !tbaa !37
  %53 = fptrunc double %49 to float
  %54 = getelementptr inbounds nuw i8, ptr %3, i64 8
  store float %53, ptr %54, align 4, !tbaa !37
  ret void
}